Certificate:
    Data:
        Version: 3 (0x2)
        Serial Number: 2 (0x2)
    Signature Algorithm: sha256WithRSAEncryption
        Issuer: C=BY, ST=MO, L=Minsk, O=Winterstu, OU=MyOrganizationalUnit, CN=Winterstu CA/name=Winterstu server/emailAddress=winterstu@gmail.com
        Validity
            Not Before: Nov 13 04:19:38 2017 GMT
            Not After : Nov 11 04:19:38 2027 GMT
        Subject: C=BY, ST=MO, L=Minsk, O=Winterstu, OU=MyOrganizationalUnit, CN=kuzia/name=Winterstu server/emailAddress=winterstu@gmail.com
        Subject Public Key Info:
            Public Key Algorithm: rsaEncryption
                Public-Key: (2048 bit)
                Modulus:
                    00:bc:71:fc:0d:32:28:f8:21:5a:89:89:17:d0:b4:
                    07:5c:46:bf:46:1b:15:27:10:a5:c5:09:44:ff:6f:
                    d4:ee:e3:0b:01:97:07:11:5c:a9:f3:39:bf:42:99:
                    2d:96:72:e9:66:01:7f:81:20:8c:b5:93:2a:9f:70:
                    60:01:b8:2e:31:4d:fb:65:e0:04:ac:a1:40:40:09:
                    93:81:4f:ec:2d:84:ab:80:7a:52:2c:f4:4a:63:f5:
                    c8:f6:69:6d:b6:a4:d5:10:f3:e3:51:2c:f2:69:09:
                    96:8c:aa:70:bf:27:f4:d0:43:38:e2:2e:d7:e2:3e:
                    d3:a2:79:e1:e0:c8:6e:8a:57:0b:e1:10:df:db:22:
                    65:42:23:ce:27:8a:0d:cb:0a:06:40:d7:e7:62:dd:
                    a4:a2:0d:32:da:ef:c7:c9:aa:37:b4:5d:c4:fe:47:
                    85:18:0e:c3:0f:ee:ae:d3:05:bf:c3:71:08:11:89:
                    6f:eb:f4:96:32:a5:72:24:93:1a:88:2a:9e:13:6a:
                    57:d2:43:02:c9:c8:d2:2f:5e:d7:93:1c:11:c8:59:
                    e7:89:57:d5:98:7e:5d:53:84:40:53:39:12:5f:bc:
                    2d:61:d6:bd:85:4e:86:41:17:7b:65:fc:04:c8:9b:
                    86:8d:d5:76:5a:60:d8:fa:dc:38:65:84:e6:9c:48:
                    1c:9f
                Exponent: 65537 (0x10001)
        X509v3 extensions:
            X509v3 Basic Constraints: 
                CA:FALSE
            Netscape Comment: 
                Easy-RSA Generated Certificate
            X509v3 Subject Key Identifier: 
                12:D9:92:7D:D5:25:F1:91:28:AA:D9:39:7E:D2:60:B8:7B:E4:66:CA
            X509v3 Authority Key Identifier: 
                keyid:FA:13:1D:89:8F:62:34:24:93:3E:D9:75:AB:91:C2:0C:8D:D3:EE:2F
                DirName:/C=BY/ST=MO/L=Minsk/O=Winterstu/OU=MyOrganizationalUnit/CN=Winterstu CA/name=Winterstu server/emailAddress=winterstu@gmail.com
                serial:9D:43:A8:2C:77:06:26:E1

            X509v3 Extended Key Usage: 
                TLS Web Client Authentication
            X509v3 Key Usage: 
                Digital Signature
            X509v3 Subject Alternative Name: 
                DNS:kuzia
    Signature Algorithm: sha256WithRSAEncryption
         32:a7:ca:03:51:4a:e4:aa:08:c9:4a:c9:51:bf:f4:95:ce:46:
         95:4e:1c:af:15:20:f2:15:6d:1f:a1:45:00:a2:36:44:88:3d:
         62:22:0a:6f:61:34:61:a7:77:61:fe:84:e9:ee:53:15:ae:85:
         65:35:8b:3c:50:4b:71:f4:8d:42:8f:5b:02:b5:4d:25:a8:5c:
         a4:e8:2f:12:b6:fa:bb:3b:7d:ef:98:3f:46:4e:07:94:89:03:
         c7:4d:71:49:fb:f2:0f:14:4e:d1:1e:9b:24:ea:dc:66:6a:29:
         16:25:18:1f:b4:3f:c6:84:25:7e:cd:9e:04:bc:f4:83:6a:37:
         6c:9f:80:1e:af:94:1e:7d:0d:5d:2d:f0:06:7a:90:c3:d3:b4:
         fa:f2:77:0c:03:b6:2a:af:6e:8d:91:be:e4:04:0c:66:aa:5c:
         50:f5:6a:bb:15:0a:12:a9:e0:01:b6:e4:32:cd:36:74:ce:b8:
         b0:3b:97:3b:73:5d:00:2d:70:bc:48:18:4a:d5:48:d4:31:28:
         62:b9:5b:3c:67:6a:bc:9d:51:75:5e:27:81:15:ec:b3:fb:e5:
         16:fa:ac:19:77:63:40:93:bc:71:69:c4:a5:8e:73:7a:a7:7c:
         66:05:6a:eb:82:a7:6d:e1:eb:45:53:85:d0:cc:74:b3:e5:ae:
         1e:56:8c:ee
-----BEGIN CERTIFICATE-----
MIIFWjCCBEKgAwIBAgIBAjANBgkqhkiG9w0BAQsFADCBszELMAkGA1UEBhMCQlkx
CzAJBgNVBAgTAk1PMQ4wDAYDVQQHEwVNaW5zazESMBAGA1UEChMJV2ludGVyc3R1
MR0wGwYDVQQLExRNeU9yZ2FuaXphdGlvbmFsVW5pdDEVMBMGA1UEAxMMV2ludGVy
c3R1IENBMRkwFwYDVQQpExBXaW50ZXJzdHUgc2VydmVyMSIwIAYJKoZIhvcNAQkB
FhN3aW50ZXJzdHVAZ21haWwuY29tMB4XDTE3MTExMzA0MTkzOFoXDTI3MTExMTA0
MTkzOFowgawxCzAJBgNVBAYTAkJZMQswCQYDVQQIEwJNTzEOMAwGA1UEBxMFTWlu
c2sxEjAQBgNVBAoTCVdpbnRlcnN0dTEdMBsGA1UECxMUTXlPcmdhbml6YXRpb25h
bFVuaXQxDjAMBgNVBAMTBWt1emlhMRkwFwYDVQQpExBXaW50ZXJzdHUgc2VydmVy
MSIwIAYJKoZIhvcNAQkBFhN3aW50ZXJzdHVAZ21haWwuY29tMIIBIjANBgkqhkiG
9w0BAQEFAAOCAQ8AMIIBCgKCAQEAvHH8DTIo+CFaiYkX0LQHXEa/RhsVJxClxQlE
/2/U7uMLAZcHEVyp8zm/QpktlnLpZgF/gSCMtZMqn3BgAbguMU37ZeAErKFAQAmT
gU/sLYSrgHpSLPRKY/XI9mlttqTVEPPjUSzyaQmWjKpwvyf00EM44i7X4j7Tonnh
4MhuilcL4RDf2yJlQiPOJ4oNywoGQNfnYt2kog0y2u/Hyao3tF3E/keFGA7DD+6u
0wW/w3EIEYlv6/SWMqVyJJMaiCqeE2pX0kMCycjSL17XkxwRyFnniVfVmH5dU4RA
UzkSX7wtYda9hU6GQRd7ZfwEyJuGjdV2WmDY+tw4ZYTmnEgcnwIDAQABo4IBfDCC
AXgwCQYDVR0TBAIwADAtBglghkgBhvhCAQ0EIBYeRWFzeS1SU0EgR2VuZXJhdGVk
IENlcnRpZmljYXRlMB0GA1UdDgQWBBQS2ZJ91SXxkSiq2Tl+0mC4e+RmyjCB6AYD
VR0jBIHgMIHdgBT6Ex2Jj2I0JJM+2XWrkcIMjdPuL6GBuaSBtjCBszELMAkGA1UE
BhMCQlkxCzAJBgNVBAgTAk1PMQ4wDAYDVQQHEwVNaW5zazESMBAGA1UEChMJV2lu
dGVyc3R1MR0wGwYDVQQLExRNeU9yZ2FuaXphdGlvbmFsVW5pdDEVMBMGA1UEAxMM
V2ludGVyc3R1IENBMRkwFwYDVQQpExBXaW50ZXJzdHUgc2VydmVyMSIwIAYJKoZI
hvcNAQkBFhN3aW50ZXJzdHVAZ21haWwuY29tggkAnUOoLHcGJuEwEwYDVR0lBAww
CgYIKwYBBQUHAwIwCwYDVR0PBAQDAgeAMBAGA1UdEQQJMAeCBWt1emlhMA0GCSqG
SIb3DQEBCwUAA4IBAQAyp8oDUUrkqgjJSslRv/SVzkaVThyvFSDyFW0foUUAojZE
iD1iIgpvYTRhp3dh/oTp7lMVroVlNYs8UEtx9I1Cj1sCtU0lqFyk6C8Stvq7O33v
mD9GTgeUiQPHTXFJ+/IPFE7RHpsk6txmaikWJRgftD/GhCV+zZ4EvPSDajdsn4Ae
r5QefQ1dLfAGepDD07T68ncMA7Yqr26Nkb7kBAxmqlxQ9Wq7FQoSqeABtuQyzTZ0
zriwO5c7c10ALXC8SBhK1UjUMShiuVs8Z2q8nVF1XieBFeyz++UW+qwZd2NAk7xx
acSljnN6p3xmBWrrgqdt4etFU4XQzHSz5a4eVozu
-----END CERTIFICATE-----
